target datalayout = "e-m:e-p270:32:32-p271:32:32-p272:64:64-i64:64-i128:128-f80:128-n8:16:32:64-S128"
target triple = "x86_64-pc-linux-gnu"

%struct.location = type { i32, i32 }

@UNKNOWN_LOCATION = internal constant %struct.location { i32 -1, i32 -1 }, align 4
@.str.48 = private unnamed_addr constant [80 x i8] c"jq: error: library should only have function definitions, not a main expression\00", align 1

; Function Attrs: nounwind uwtable
define dso_local i32 @jq_parse_library(ptr noundef %0, ptr noundef %1) #0 {
  %3 = alloca i32, align 4
  %4 = alloca ptr, align 8
  %5 = alloca ptr, align 8
  %6 = alloca i32, align 4
  %7 = alloca i32, align 4
  store ptr %0, ptr %4, align 8, !tbaa !12
  store ptr %1, ptr %5, align 8, !tbaa !8
  call void @llvm.lifetime.start.p0(i64 4, ptr %6) #8
  %8 = load ptr, ptr %4, align 8, !tbaa !12
  %9 = load ptr, ptr %5, align 8, !tbaa !8
  %10 = call i32 @jq_parse(ptr noundef %8, ptr noundef %9)
  store i32 %10, ptr %6, align 4, !tbaa !18
  %11 = load i32, ptr %6, align 4, !tbaa !18
  %12 = icmp ne i32 %11, 0
  br i1 %12, label %13, label %15

13:                                               ; preds = %2
  %14 = load i32, ptr %6, align 4, !tbaa !18
  store i32 %14, ptr %3, align 4
  store i32 1, ptr %7, align 4
  br label %27

15:                                               ; preds = %2
  %16 = load ptr, ptr %5, align 8, !tbaa !8
  %17 = getelementptr inbounds nuw { ptr, ptr }, ptr %16, i32 0, i32 0
  %18 = load ptr, ptr %17, align 8
  %19 = getelementptr inbounds nuw { ptr, ptr }, ptr %16, i32 0, i32 1
  %20 = load ptr, ptr %19, align 8
  %21 = call i32 @block_has_main(ptr %18, ptr %20)
  %22 = icmp ne i32 %21, 0
  br i1 %22, label %23, label %26

23:                                               ; preds = %15
  %24 = load ptr, ptr %4, align 8, !tbaa !12
  %25 = load i64, ptr @UNKNOWN_LOCATION, align 4
  call void (ptr, i64, ptr, ...) @locfile_locate(ptr noundef %24, i64 %25, ptr noundef @.str.48)
  store i32 1, ptr %3, align 4
  store i32 1, ptr %7, align 4
  br label %27

26:                                               ; preds = %15
  store i32 0, ptr %3, align 4
  store i32 1, ptr %7, align 4
  br label %27

27:                                               ; preds = %26, %23, %13
  call void @llvm.lifetime.end.p0(i64 4, ptr %6) #8
  %28 = load i32, ptr %3, align 4
  ret i32 %28
}