; Function Attrs: nounwind uwtable
define dso_local i32 @jq_parse_library(ptr noundef %0, ptr noundef captures(none) initializes((0, 16)) %1) local_unnamed_addr #0 {
  %3 = tail call i32 @jq_parse(ptr noundef %0, ptr noundef %1)
  %.not = icmp eq i32 %3, 0
  br i1 %.not, label %4, label %10

4:                                                ; preds = %2
  %5 = load ptr, ptr %1, align 8
  %6 = getelementptr inbounds nuw i8, ptr %1, i64 8
  %7 = load ptr, ptr %6, align 8
  %8 = tail call i32 @block_has_main(ptr %5, ptr %7) #10
  %.not7 = icmp eq i32 %8, 0
  br i1 %.not7, label %10, label %9

9:                                                ; preds = %4
  tail call void (ptr, i64, ptr, ...) @locfile_locate(ptr noundef %0, i64 -1, ptr noundef nonnull @.str.48) #10
  br label %10

10:                                               ; preds = %4, %2, %9
  %.0 = phi i32 [ 1, %9 ], [ %3, %2 ], [ 0, %4 ]
  ret i32 %.0
}